; Function Attrs: mustprogress nofree norecurse nosync nounwind optsize willreturn memory(argmem: readwrite) uwtable
define internal void @_ZN8nanobind6detail9wrap_moveIZL30nanobind_init_test_holders_extRNS_7module_EE14ExampleWrapperEEvPvS5_(ptr noundef writeonly captures(none) initializes((0, 4), (8, 24)) %0, ptr noundef captures(none) %1) #17 {
  %3 = load i32, ptr %1, align 8, !tbaa !69
  store i32 %3, ptr %0, align 8, !tbaa !69
  %4 = getelementptr inbounds nuw i8, ptr %0, i64 8
  %5 = getelementptr inbounds nuw i8, ptr %1, i64 8
  %6 = load ptr, ptr %5, align 8, !tbaa !152
  store ptr %6, ptr %4, align 8, !tbaa !152
  %7 = getelementptr inbounds nuw i8, ptr %0, i64 16
  store ptr null, ptr %7, align 8, !tbaa !126
  %8 = getelementptr inbounds nuw i8, ptr %1, i64 16
  %9 = load ptr, ptr %8, align 8, !tbaa !126
  store ptr null, ptr %8, align 8, !tbaa !126
  store ptr %9, ptr %7, align 8, !tbaa !126
  store ptr null, ptr %5, align 8, !tbaa !152
  ret void
}